; Function Attrs: nounwind uwtable
define noalias noundef nonnull ptr @l_Array_forIn_x27Unsafe_loop___at_Lean_Server_FileWorker_handleUnknownIdentifierCodeAction___spec__5___lambda__1___boxed(ptr noundef %0, ptr noundef %1, ptr noundef %2, ptr noundef %3, ptr noundef %4, ptr noundef %5, ptr noundef %6, ptr noundef %7, ptr noundef %8, ptr noundef %9, ptr noundef %10, ptr noundef %11) local_unnamed_addr #0 {
  %13 = ptrtoint ptr %2 to i64
  %14 = lshr i64 %13, 1
  %15 = trunc i64 %14 to i8
  %16 = and i64 %13, 1
  %.not = icmp eq i64 %16, 0
  br i1 %.not, label %17, label %lean_dec.exit25

17:                                               ; preds = %12
  %18 = load i32, ptr %2, align 4, !tbaa !8
  %19 = icmp sgt i32 %18, 1
  br i1 %19, label %20, label %22, !prof !11

20:                                               ; preds = %17
  %21 = add nsw i32 %18, -1
  store i32 %21, ptr %2, align 4, !tbaa !8
  br label %lean_dec.exit25

22:                                               ; preds = %17
  %.not.i = icmp eq i32 %18, 0
  br i1 %.not.i, label %lean_dec.exit25, label %23

23:                                               ; preds = %22
  tail call void @lean_dec_ref_cold(ptr noundef nonnull %2) #5
  br label %lean_dec.exit25

lean_dec.exit25:                                  ; preds = %23, %22, %20, %12
  %24 = ptrtoint ptr %6 to i64
  %25 = lshr i64 %24, 1
  %26 = trunc i64 %25 to i8
  %27 = and i64 %24, 1
  %.not36 = icmp eq i64 %27, 0
  br i1 %.not36, label %28, label %lean_dec.exit24

28:                                               ; preds = %lean_dec.exit25
  %29 = load i32, ptr %6, align 4, !tbaa !8
  %30 = icmp sgt i32 %29, 1
  br i1 %30, label %31, label %33, !prof !11

31:                                               ; preds = %28
  %32 = add nsw i32 %29, -1
  store i32 %32, ptr %6, align 4, !tbaa !8
  br label %lean_dec.exit24

33:                                               ; preds = %28
  %.not.i26 = icmp eq i32 %29, 0
  br i1 %.not.i26, label %lean_dec.exit24, label %34

34:                                               ; preds = %33
  tail call void @lean_dec_ref_cold(ptr noundef nonnull %6) #5
  br label %lean_dec.exit24

lean_dec.exit24:                                  ; preds = %34, %33, %31, %lean_dec.exit25
  %35 = ptrtoint ptr %7 to i64
  %36 = lshr i64 %35, 1
  %37 = trunc i64 %36 to i8
  %38 = and i64 %35, 1
  %.not37 = icmp eq i64 %38, 0
  br i1 %.not37, label %39, label %lean_dec.exit23

39:                                               ; preds = %lean_dec.exit24
  %40 = load i32, ptr %7, align 4, !tbaa !8
  %41 = icmp sgt i32 %40, 1
  br i1 %41, label %42, label %44, !prof !11

42:                                               ; preds = %39
  %43 = add nsw i32 %40, -1
  store i32 %43, ptr %7, align 4, !tbaa !8
  br label %lean_dec.exit23

44:                                               ; preds = %39
  %.not.i28 = icmp eq i32 %40, 0
  br i1 %.not.i28, label %lean_dec.exit23, label %45

45:                                               ; preds = %44
  tail call void @lean_dec_ref_cold(ptr noundef nonnull %7) #5
  br label %lean_dec.exit23

lean_dec.exit23:                                  ; preds = %45, %44, %42, %lean_dec.exit24
  %46 = tail call ptr @l_Array_forIn_x27Unsafe_loop___at_Lean_Server_FileWorker_handleUnknownIdentifierCodeAction___spec__5___lambda__1(ptr noundef %0, ptr noundef %1, i8 noundef zeroext %15, ptr noundef %3, ptr noundef %4, ptr noundef %5, i8 noundef zeroext %26, i8 noundef zeroext %37, ptr noundef %8, ptr poison, ptr poison, ptr noundef %11)
  %47 = ptrtoint ptr %10 to i64
  %48 = and i64 %47, 1
  %.not38 = icmp eq i64 %48, 0
  br i1 %.not38, label %49, label %lean_dec.exit22

49:                                               ; preds = %lean_dec.exit23
  %50 = load i32, ptr %10, align 4, !tbaa !8
  %51 = icmp sgt i32 %50, 1
  br i1 %51, label %52, label %54, !prof !11

52:                                               ; preds = %49
  %53 = add nsw i32 %50, -1
  store i32 %53, ptr %10, align 4, !tbaa !8
  br label %lean_dec.exit22

54:                                               ; preds = %49
  %.not.i30 = icmp eq i32 %50, 0
  br i1 %.not.i30, label %lean_dec.exit22, label %55

55:                                               ; preds = %54
  tail call void @lean_dec_ref_cold(ptr noundef nonnull %10) #5
  br label %lean_dec.exit22

lean_dec.exit22:                                  ; preds = %55, %54, %52, %lean_dec.exit23
  %56 = ptrtoint ptr %9 to i64
  %57 = and i64 %56, 1
  %.not39 = icmp eq i64 %57, 0
  br i1 %.not39, label %58, label %lean_dec.exit21

58:                                               ; preds = %lean_dec.exit22
  %59 = load i32, ptr %9, align 4, !tbaa !8
  %60 = icmp sgt i32 %59, 1
  br i1 %60, label %61, label %63, !prof !11

61:                                               ; preds = %58
  %62 = add nsw i32 %59, -1
  store i32 %62, ptr %9, align 4, !tbaa !8
  br label %lean_dec.exit21

63:                                               ; preds = %58
  %.not.i32 = icmp eq i32 %59, 0
  br i1 %.not.i32, label %lean_dec.exit21, label %64

64:                                               ; preds = %63
  tail call void @lean_dec_ref_cold(ptr noundef nonnull %9) #5
  br label %lean_dec.exit21

lean_dec.exit21:                                  ; preds = %64, %63, %61, %lean_dec.exit22
  %65 = ptrtoint ptr %4 to i64
  %66 = and i64 %65, 1
  %.not40 = icmp eq i64 %66, 0
  br i1 %.not40, label %67, label %lean_dec.exit

67:                                               ; preds = %lean_dec.exit21
  %68 = load i32, ptr %4, align 4, !tbaa !8
  %69 = icmp sgt i32 %68, 1
  br i1 %69, label %70, label %72, !prof !11

70:                                               ; preds = %67
  %71 = add nsw i32 %68, -1
  store i32 %71, ptr %4, align 4, !tbaa !8
  br label %lean_dec.exit

72:                                               ; preds = %67
  %.not.i34 = icmp eq i32 %68, 0
  br i1 %.not.i34, label %lean_dec.exit, label %73

73:                                               ; preds = %72
  tail call void @lean_dec_ref_cold(ptr noundef nonnull %4) #5
  br label %lean_dec.exit

lean_dec.exit:                                    ; preds = %73, %72, %70, %lean_dec.exit21
  ret ptr %46
}